target datalayout = "e-m:e-p270:32:32-p271:32:32-p272:64:64-i64:64-i128:128-f80:128-n8:16:32:64-S128"
target triple = "x86_64-pc-linux-gnu"

%struct.archive_write = type { %struct.archive, i32, i64, i64, ptr, i64, ptr, ptr, ptr, ptr, ptr, i32, i32, ptr, ptr, ptr, ptr, ptr, ptr, ptr, ptr, ptr, ptr, ptr, ptr, ptr, ptr }
%struct.archive = type { i32, i32, ptr, i32, ptr, i32, i32, ptr, %struct.archive_string, ptr, i32, i32, ptr, ptr, i64, i64, i64, i8, i64 }
%struct.archive_string = type { ptr, i64, i64 }

@.str.12 = private unnamed_addr constant [19 x i8] c"archive_write_data\00", align 1

; Function Attrs: nounwind uwtable
define internal i64 @_archive_write_data(ptr noundef %0, ptr noundef %1, i64 noundef %2) #0 {
  %4 = alloca i64, align 8
  %5 = alloca ptr, align 8
  %6 = alloca ptr, align 8
  %7 = alloca i64, align 8
  %8 = alloca ptr, align 8
  %9 = alloca i64, align 8
  %10 = alloca i32, align 4
  %11 = alloca i32, align 4
  store ptr %0, ptr %5, align 8, !tbaa !26
  store ptr %1, ptr %6, align 8, !tbaa !40
  store i64 %2, ptr %7, align 8, !tbaa !29
  call void @llvm.lifetime.start.p0(i64 8, ptr %8) #9
  %12 = load ptr, ptr %5, align 8, !tbaa !26
  store ptr %12, ptr %8, align 8, !tbaa !4
  call void @llvm.lifetime.start.p0(i64 8, ptr %9) #9
  store i64 2147483647, ptr %9, align 8, !tbaa !29
  br label %13

13:                                               ; preds = %3
  call void @llvm.lifetime.start.p0(i64 4, ptr %10) #9
  %14 = load ptr, ptr %8, align 8, !tbaa !4
  %15 = getelementptr inbounds nuw %struct.archive_write, ptr %14, i32 0, i32 0
  %16 = call i32 @__archive_check_magic(ptr noundef %15, i32 noundef -1329217314, i32 noundef 4, ptr noundef @.str.12)
  store i32 %16, ptr %10, align 4, !tbaa !28
  %17 = load i32, ptr %10, align 4, !tbaa !28
  %18 = icmp eq i32 %17, -30
  br i1 %18, label %19, label %20

19:                                               ; preds = %13
  store i64 -30, ptr %4, align 8
  store i32 1, ptr %11, align 4
  br label %21

20:                                               ; preds = %13
  store i32 0, ptr %11, align 4
  br label %21

21:                                               ; preds = %20, %19
  call void @llvm.lifetime.end.p0(i64 4, ptr %10) #9
  %22 = load i32, ptr %11, align 4
  switch i32 %22, label %39 [
    i32 0, label %23
  ]

23:                                               ; preds = %21
  br label %24

24:                                               ; preds = %23
  br label %25

25:                                               ; preds = %24
  %26 = load i64, ptr %7, align 8, !tbaa !29
  %27 = icmp ugt i64 %26, 2147483647
  br i1 %27, label %28, label %29

28:                                               ; preds = %25
  store i64 2147483647, ptr %7, align 8, !tbaa !29
  br label %29

29:                                               ; preds = %28, %25
  %30 = load ptr, ptr %8, align 8, !tbaa !4
  %31 = getelementptr inbounds nuw %struct.archive_write, ptr %30, i32 0, i32 0
  call void @archive_clear_error(ptr noundef %31)
  %32 = load ptr, ptr %8, align 8, !tbaa !4
  %33 = getelementptr inbounds nuw %struct.archive_write, ptr %32, i32 0, i32 21
  %34 = load ptr, ptr %33, align 8, !tbaa !77
  %35 = load ptr, ptr %8, align 8, !tbaa !4
  %36 = load ptr, ptr %6, align 8, !tbaa !40
  %37 = load i64, ptr %7, align 8, !tbaa !29
  %38 = call i64 %34(ptr noundef %35, ptr noundef %36, i64 noundef %37)
  store i64 %38, ptr %4, align 8
  store i32 1, ptr %11, align 4
  br label %39

39:                                               ; preds = %29, %21
  call void @llvm.lifetime.end.p0(i64 8, ptr %9) #9
  call void @llvm.lifetime.end.p0(i64 8, ptr %8) #9
  %40 = load i64, ptr %4, align 8
  ret i64 %40
}