; Function Attrs: nounwind uwtable
define internal i64 @_archive_write_data(ptr noundef %0, ptr noundef %1, i64 noundef %2) #3 {
  %4 = tail call i32 @__archive_check_magic(ptr noundef %0, i32 noundef -1329217314, i32 noundef 4, ptr noundef nonnull @.str.12) #13
  %.not = icmp eq i32 %4, -30
  br i1 %.not, label %9, label %5

5:                                                ; preds = %3
  %spec.store.select = tail call i64 @llvm.umin.i64(i64 %2, i64 2147483647)
  tail call void @archive_clear_error(ptr noundef %0) #13
  %6 = getelementptr inbounds nuw i8, ptr %0, i64 296
  %7 = load ptr, ptr %6, align 8, !tbaa !67
  %8 = tail call i64 %7(ptr noundef %0, ptr noundef %1, i64 noundef %spec.store.select) #13
  br label %9

9:                                                ; preds = %3, %5
  %.1 = phi i64 [ %8, %5 ], [ -30, %3 ]
  ret i64 %.1
}